; Function Attrs: mustprogress uwtable
define noundef ptr @_ZN6icu_7718Normalizer2Factory14getNFKC_CFImplER10UErrorCode(ptr noundef nonnull align 4 dereferenceable(4) %0) local_unnamed_addr #6 align 2 {
  %2 = load i32, ptr %0, align 4, !tbaa !30
  %3 = icmp slt i32 %2, 1
  br i1 %3, label %4, label %_ZN6icu_7713Norm2AllModes18getNFKC_CFInstanceER10UErrorCode.exit.thread

4:                                                ; preds = %1
  %5 = load atomic i32, ptr @_ZN6icu_77L15nfkc_cfInitOnceE acquire, align 4
  %.not12.i.i = icmp eq i32 %5, 2
  br i1 %.not12.i.i, label %10, label %6

6:                                                ; preds = %4
  %7 = tail call noundef signext i8 @_ZN6icu_7720umtx_initImplPreInitERNS_9UInitOnceE(ptr noundef nonnull align 4 dereferenceable(8) @_ZN6icu_77L15nfkc_cfInitOnceE)
  %.not13.i.i = icmp eq i8 %7, 0
  br i1 %.not13.i.i, label %10, label %8

8:                                                ; preds = %6
  tail call fastcc void @_ZN6icu_77L14initSingletonsEPKcR10UErrorCode(ptr noundef nonnull @.str.2, ptr noundef nonnull align 4 dereferenceable(4) %0)
  %9 = load i32, ptr %0, align 4, !tbaa !30
  store i32 %9, ptr getelementptr inbounds nuw (i8, ptr @_ZN6icu_77L15nfkc_cfInitOnceE, i64 4), align 4, !tbaa !33
  tail call void @_ZN6icu_7721umtx_initImplPostInitERNS_9UInitOnceE(ptr noundef nonnull align 4 dereferenceable(8) @_ZN6icu_77L15nfkc_cfInitOnceE)
  br label %_ZN6icu_7713Norm2AllModes18getNFKC_CFInstanceER10UErrorCode.exit

10:                                               ; preds = %6, %4
  %11 = load i32, ptr getelementptr inbounds nuw (i8, ptr @_ZN6icu_77L15nfkc_cfInitOnceE, i64 4), align 4, !tbaa !33
  %12 = icmp slt i32 %11, 1
  br i1 %12, label %_ZN6icu_7713Norm2AllModes18getNFKC_CFInstanceER10UErrorCode.exit, label %13

13:                                               ; preds = %10
  store i32 %11, ptr %0, align 4, !tbaa !30
  br label %_ZN6icu_7713Norm2AllModes18getNFKC_CFInstanceER10UErrorCode.exit

_ZN6icu_7713Norm2AllModes18getNFKC_CFInstanceER10UErrorCode.exit: ; preds = %8, %10, %13
  %14 = load ptr, ptr @_ZN6icu_77L16nfkc_cfSingletonE, align 8, !tbaa !34
  %.not = icmp eq ptr %14, null
  br i1 %.not, label %_ZN6icu_7713Norm2AllModes18getNFKC_CFInstanceER10UErrorCode.exit.thread, label %15

15:                                               ; preds = %_ZN6icu_7713Norm2AllModes18getNFKC_CFInstanceER10UErrorCode.exit
  %16 = load ptr, ptr %14, align 8, !tbaa !40
  br label %_ZN6icu_7713Norm2AllModes18getNFKC_CFInstanceER10UErrorCode.exit.thread

_ZN6icu_7713Norm2AllModes18getNFKC_CFInstanceER10UErrorCode.exit.thread: ; preds = %1, %_ZN6icu_7713Norm2AllModes18getNFKC_CFInstanceER10UErrorCode.exit, %15
  %17 = phi ptr [ %16, %15 ], [ null, %_ZN6icu_7713Norm2AllModes18getNFKC_CFInstanceER10UErrorCode.exit ], [ null, %1 ]
  ret ptr %17
}